(dp1
S'test'
p2
ccollections
defaultdict
p3
(c__builtin__
list
p4
tRp5
S'discriminator'
p6
(lp7
(lp8
cnumpy.core.multiarray
scalar
p9
(cnumpy
dtype
p10
(S'f8'
I0
I1
tRp11
(I3
S'<'
NNNI-1
I-1
I0
tbS'\x00\x00\x00@\x8f\x91\x0c@'
tRp12
ag9
(g11
S'q=\nW!&\xdb?'
tRp13
ag9
(g11
S'\xd7\xa3p\x1d\xcb,\t@'
tRp14
aasS'generator'
p15
(lp16
(lp17
g9
(g11
S')\\\x8f\x02\xfe#\x12@'
tRp18
ag9
(g11
S'\xa4p=J\xc9z\x00@'
tRp19
ag9
(g11
S'\x00\x00\x00\xc02\xcd\x03@'
tRp20
aassS'train'
p21
g3
(g4
tRp22
g6
(lp23
cnumpy.core.multiarray
_reconstruct
p24
(cnumpy
ndarray
p25
(I0
tS'b'
tRp26
(I1
(I3
tg10
(S'f4'
I0
I1
tRp27
(I3
S'<'
NNNI-1
I-1
I0
tbI00
S'\xabx\x03@q\x02\xd4>\xb6\xf0\xd1?'
tbasg15
(lp28
g24
(g25
(I0
tS'b'
tRp29
(I1
(I3
tg27
I00
S'\x14a\x86@d\xb3\xe1?u\xe8\x1b@'
tbass.